Certificate:
    Data:
        Version: 3 (0x2)
        Serial Number: 1 (0x1)
        Signature Algorithm: md5WithRSAEncryption
        Issuer: C=NL, ST=Noord-Holland, L=Amsterdam, O=Diff Automatisering, OU=Support group, CN=J. van der Steen/emailAddress=info@diff.nl
        Validity
            Not Before: May 26 11:54:56 2004 GMT
            Not After : May 26 11:54:56 2005 GMT
        Subject: C=NL, ST=Noord-Holland, L=Amsterdam, O=Diff Automatisering, OU=Server, CN=J. van der Steen/emailAddress=J.van.der.Steen@diff.nl
        Subject Public Key Info:
            Public Key Algorithm: rsaEncryption
            RSA Public Key: (1024 bit)
                Modulus (1024 bit):
                    00:d4:cc:b2:16:fe:31:d0:82:4d:92:cf:19:df:05:
                    ad:9e:60:20:87:0c:f0:f8:0b:b9:e5:a4:0d:90:90:
                    75:c0:76:0a:91:78:35:9f:94:a6:bc:7f:99:8b:67:
                    ce:75:27:9d:e2:2a:66:b3:42:6a:01:ed:8a:a7:fb:
                    23:0a:5e:95:3d:50:ee:7e:47:a5:e4:57:d8:9c:52:
                    98:bd:8f:2b:f7:c7:f5:51:ea:a6:d5:f6:25:e9:a9:
                    e4:9f:9b:72:ff:fb:88:e8:c5:68:e6:d3:ad:0e:04:
                    85:5e:fc:48:0a:b3:6f:2b:a7:aa:d3:68:a5:36:60:
                    17:01:58:5b:ff:5e:d0:4c:0d
                Exponent: 65537 (0x10001)
        X509v3 extensions:
            X509v3 Basic Constraints: 
                CA:FALSE
            Netscape Comment: 
                OpenSSL Generated Certificate
            X509v3 Subject Key Identifier: 
                A2:DC:49:11:AE:01:7A:9B:A4:24:65:66:2F:8A:35:64:58:21:D7:A5
            X509v3 Authority Key Identifier: 
                keyid:37:2F:FA:F6:81:4A:E7:AD:E3:CC:4B:44:27:C0:53:0C:3A:CE:74:DE
                DirName:/C=NL/ST=Noord-Holland/L=Amsterdam/O=Diff Automatisering/OU=Support group/CN=J. van der Steen/emailAddress=info@diff.nl
                serial:00

    Signature Algorithm: md5WithRSAEncryption
        d5:64:f4:8d:56:ff:a9:f1:7b:a6:41:c6:0d:79:43:29:c7:ec:
        47:29:8a:07:23:01:ee:bb:15:67:dc:02:a7:3d:fc:29:86:7a:
        bb:b2:54:c4:25:cd:1e:0b:9e:cb:76:d6:9e:d8:49:95:63:de:
        12:d6:b9:88:ec:96:5f:2d:93:1d:0c:9d:ec:57:67:89:0d:e7:
        b6:2b:45:db:3b:4b:d8:13:ad:30:6a:30:ca:d9:52:a3:ae:55:
        68:14:15:9f:a4:bb:1f:e9:df:b4:7c:a6:fe:29:1a:5a:69:3b:
        17:43:d1:5a:1f:02:37:bd:eb:68:ea:97:8f:a3:af:f4:ba:51:
        a1:9b
-----BEGIN CERTIFICATE-----
MIID/zCCA2igAwIBAgIBATANBgkqhkiG9w0BAQQFADCBpzELMAkGA1UEBhMCTkwx
FjAUBgNVBAgTDU5vb3JkLUhvbGxhbmQxEjAQBgNVBAcTCUFtc3RlcmRhbTEcMBoG
A1UEChMTRGlmZiBBdXRvbWF0aXNlcmluZzEWMBQGA1UECxMNU3VwcG9ydCBncm91
cDEZMBcGA1UEAxMQSi4gdmFuIGRlciBTdGVlbjEbMBkGCSqGSIb3DQEJARYMaW5m
b0BkaWZmLm5sMB4XDTA0MDUyNjExNTQ1NloXDTA1MDUyNjExNTQ1NlowgasxCzAJ
BgNVBAYTAk5MMRYwFAYDVQQIEw1Ob29yZC1Ib2xsYW5kMRIwEAYDVQQHEwlBbXN0
ZXJkYW0xHDAaBgNVBAoTE0RpZmYgQXV0b21hdGlzZXJpbmcxDzANBgNVBAsTBlNl
cnZlcjEZMBcGA1UEAxMQSi4gdmFuIGRlciBTdGVlbjEmMCQGCSqGSIb3DQEJARYX
Si52YW4uZGVyLlN0ZWVuQGRpZmYubmwwgZ8wDQYJKoZIhvcNAQEBBQADgY0AMIGJ
AoGBANTMshb+MdCCTZLPGd8FrZ5gIIcM8PgLueWkDZCQdcB2CpF4NZ+Uprx/mYtn
znUnneIqZrNCagHtiqf7IwpelT1Q7n5HpeRX2JxSmL2PK/fH9VHqptX2Jemp5J+b
cv/7iOjFaObTrQ4EhV78SAqzbyunqtNopTZgFwFYW/9e0EwNAgMBAAGjggEzMIIB
LzAJBgNVHRMEAjAAMCwGCWCGSAGG+EIBDQQfFh1PcGVuU1NMIEdlbmVyYXRlZCBD
ZXJ0aWZpY2F0ZTAdBgNVHQ4EFgQUotxJEa4BepukJGVmL4o1ZFgh16UwgdQGA1Ud
IwSBzDCByYAUNy/69oFK563jzEtEJ8BTDDrOdN6hga2kgaowgacxCzAJBgNVBAYT
Ak5MMRYwFAYDVQQIEw1Ob29yZC1Ib2xsYW5kMRIwEAYDVQQHEwlBbXN0ZXJkYW0x
HDAaBgNVBAoTE0RpZmYgQXV0b21hdGlzZXJpbmcxFjAUBgNVBAsTDVN1cHBvcnQg
Z3JvdXAxGTAXBgNVBAMTEEouIHZhbiBkZXIgU3RlZW4xGzAZBgkqhkiG9w0BCQEW
DGluZm9AZGlmZi5ubIIBADANBgkqhkiG9w0BAQQFAAOBgQDVZPSNVv+p8XumQcYN
eUMpx+xHKYoHIwHuuxVn3AKnPfwphnq7slTEJc0eC57Ldtae2EmVY94S1rmI7JZf
LZMdDJ3sV2eJDee2K0XbO0vYE60wajDK2VKjrlVoFBWfpLsf6d+0fKb+KRpaaTsX
Q9FaHwI3veto6pePo6/0ulGhmw==
-----END CERTIFICATE-----
