Certificate:
    Data:
        Version: 3 (0x2)
        Serial Number:
            a6:11:83:6b:46:29:8a:6f
        Signature Algorithm: sha1WithRSAEncryption
        Issuer: C=NL, ST=Noord-Holland, O=Diff Automatisering, OU=Support group, CN=J. van der Steen/emailAddress=info@diff.nl
        Validity
            Not Before: Feb 26 14:03:17 2007 GMT
            Not After : Feb 26 14:03:17 2008 GMT
        Subject: C=NL, ST=Noord-Holland, L=Amsterdam, O=Diff Automatisering, OU=Server, CN=J. van der Steen/emailAddress=J.van.der.Steen@diff.nl
        Subject Public Key Info:
            Public Key Algorithm: rsaEncryption
            RSA Public Key: (1024 bit)
                Modulus (1024 bit):
                    00:b0:b7:d3:f2:73:ce:16:65:f7:1b:3e:91:83:26:
                    4c:b0:2d:e8:05:b9:40:60:e0:dc:2e:19:df:94:53:
                    f9:de:35:de:83:7a:44:86:cc:85:46:a3:b4:bc:16:
                    05:f0:dd:63:8e:0e:f6:81:d9:f5:8e:e2:1d:d6:e2:
                    13:29:aa:4f:8c:bd:ad:7e:c6:e4:6c:3d:05:27:1f:
                    6b:14:64:54:5e:45:61:da:94:0a:a9:0d:7b:e1:8e:
                    1f:e2:0f:9d:09:11:14:32:96:2d:d7:cd:3a:f5:c2:
                    87:bc:e3:39:8a:dc:6a:f3:7c:a3:7d:7d:a2:05:97:
                    89:35:b5:ee:74:9e:7f:f8:bd
                Exponent: 65537 (0x10001)
        X509v3 extensions:
            X509v3 Basic Constraints: 
                CA:FALSE
            Netscape Comment: 
                OpenSSL Generated Certificate
            X509v3 Subject Key Identifier: 
                F7:7B:16:F8:0F:64:40:1C:8C:72:FD:A4:F3:B4:34:55:CC:43:3C:9D
            X509v3 Authority Key Identifier: 
                keyid:20:1B:40:E4:00:18:7C:E6:67:7A:80:16:FE:15:07:9E:BD:77:27:26

    Signature Algorithm: sha1WithRSAEncryption
        4c:f4:2d:26:fa:c6:9b:5a:c8:3e:a7:5d:ed:2b:90:e5:95:85:
        57:ab:e6:b5:b3:b4:08:42:4b:c2:7e:37:00:f9:ac:1d:15:6e:
        c6:ff:ce:ca:2a:5a:df:81:0e:a4:97:50:66:e5:e7:f4:ef:17:
        a1:2b:48:91:b0:62:db:d1:7d:3c:34:66:49:d9:28:cc:00:04:
        67:10:f4:1c:5a:ce:ac:f0:2c:8d:14:1e:2b:50:15:7e:f0:b6:
        c3:90:32:ce:c6:7f:26:77:b9:dd:be:1d:55:a7:28:7a:26:40:
        e3:e4:c4:6a:b3:fb:9d:52:84:b7:b0:53:55:7e:fd:ec:a4:75:
        5f:d6
-----BEGIN CERTIFICATE-----
MIIDOTCCAqKgAwIBAgIJAKYRg2tGKYpvMA0GCSqGSIb3DQEBBQUAMIGTMQswCQYD
VQQGEwJOTDEWMBQGA1UECBMNTm9vcmQtSG9sbGFuZDEcMBoGA1UEChMTRGlmZiBB
dXRvbWF0aXNlcmluZzEWMBQGA1UECxMNU3VwcG9ydCBncm91cDEZMBcGA1UEAxMQ
Si4gdmFuIGRlciBTdGVlbjEbMBkGCSqGSIb3DQEJARYMaW5mb0BkaWZmLm5sMB4X
DTA3MDIyNjE0MDMxN1oXDTA4MDIyNjE0MDMxN1owgasxCzAJBgNVBAYTAk5MMRYw
FAYDVQQIEw1Ob29yZC1Ib2xsYW5kMRIwEAYDVQQHEwlBbXN0ZXJkYW0xHDAaBgNV
BAoTE0RpZmYgQXV0b21hdGlzZXJpbmcxDzANBgNVBAsTBlNlcnZlcjEZMBcGA1UE
AxMQSi4gdmFuIGRlciBTdGVlbjEmMCQGCSqGSIb3DQEJARYXSi52YW4uZGVyLlN0
ZWVuQGRpZmYubmwwgZ8wDQYJKoZIhvcNAQEBBQADgY0AMIGJAoGBALC30/JzzhZl
9xs+kYMmTLAt6AW5QGDg3C4Z35RT+d413oN6RIbMhUajtLwWBfDdY44O9oHZ9Y7i
HdbiEymqT4y9rX7G5Gw9BScfaxRkVF5FYdqUCqkNe+GOH+IPnQkRFDKWLdfNOvXC
h7zjOYrcavN8o319ogWXiTW17nSef/i9AgMBAAGjezB5MAkGA1UdEwQCMAAwLAYJ
YIZIAYb4QgENBB8WHU9wZW5TU0wgR2VuZXJhdGVkIENlcnRpZmljYXRlMB0GA1Ud
DgQWBBT3exb4D2RAHIxy/aTztDRVzEM8nTAfBgNVHSMEGDAWgBQgG0DkABh85md6
gBb+FQeevXcnJjANBgkqhkiG9w0BAQUFAAOBgQBM9C0m+sabWsg+p13tK5DllYVX
q+a1s7QIQkvCfjcA+awdFW7G/87KKlrfgQ6kl1Bm5ef07xehK0iRsGLb0X08NGZJ
2SjMAARnEPQcWs6s8CyNFB4rUBV+8LbDkDLOxn8md7ndvh1Vpyh6JkDj5MRqs/ud
UoS3sFNVfv3spHVf1g==
-----END CERTIFICATE-----
