Certificate:
    Data:
        Version: 3 (0x2)
        Serial Number: 8 (0x8)
        Signature Algorithm: md5WithRSAEncryption
        Issuer: C=NL, ST=Noord-Holland, L=Amsterdam, O=University of Amsterdam, OU=HCS, CN=Jan Wielemaker/emailAddress=wielemak@science.uva.nl
        Validity
            Not Before: Feb 13 15:14:47 2006 GMT
            Not After : Feb 13 15:14:47 2007 GMT
        Subject: C=NL, ST=Noord-Holland, L=Amsterdam, O=University of Amsterdam, OU=Server, CN=Jan Wielemaker/emailAddress=wielemak@science.uva.nl
        Subject Public Key Info:
            Public Key Algorithm: rsaEncryption
            RSA Public Key: (1024 bit)
                Modulus (1024 bit):
                    00:bd:19:49:a3:5b:44:61:19:47:31:f4:d5:8c:c2:
                    bc:fc:86:08:c0:8f:d3:1c:1d:c6:f7:4f:93:f8:d1:
                    57:bf:17:d6:c5:db:34:f3:fc:af:0d:ff:0b:74:61:
                    76:14:b0:72:89:03:37:5c:d6:47:6e:c2:0c:35:f9:
                    7f:52:23:79:4b:ae:59:d8:ae:09:f5:5b:61:ed:d9:
                    29:45:80:df:fc:9b:bb:7f:5a:3b:08:dd:75:2b:29:
                    e8:07:aa:49:29:ba:4c:e8:39:b3:9e:be:03:71:e7:
                    b0:02:14:3a:de:29:17:86:14:68:b2:49:aa:9c:64:
                    01:60:1b:9f:7f:e0:ab:7c:8b
                Exponent: 65537 (0x10001)
        X509v3 extensions:
            X509v3 Basic Constraints: 
                CA:FALSE
            Netscape Comment: 
                OpenSSL Generated Certificate
            X509v3 Subject Key Identifier: 
                8F:1F:C9:B8:13:2E:8C:0A:85:B3:50:B4:57:E7:6C:09:16:5F:CE:62
            X509v3 Authority Key Identifier: 
                keyid:6B:B7:EB:1C:2E:E2:3A:89:35:58:82:1B:8B:73:23:CF:17:D8:E2:6B
                DirName:/C=NL/ST=Noord-Holland/L=Amsterdam/O=University of Amsterdam/OU=HCS/CN=Jan Wielemaker/emailAddress=wielemak@science.uva.nl
                serial:DA:4F:D6:51:F1:61:41:C8

    Signature Algorithm: md5WithRSAEncryption
        11:88:28:1f:3d:6d:76:c3:ee:de:3b:56:7b:67:aa:cd:cc:53:
        55:46:66:76:56:fe:9b:41:f7:f4:d7:67:8f:51:18:63:3b:b6:
        48:66:2d:aa:8d:26:3f:38:94:6b:c7:e4:c1:0b:db:c6:fc:69:
        12:60:5a:a6:7d:cc:26:95:38:23:34:21:56:9d:c3:12:f8:04:
        cc:cb:24:4c:c5:e4:83:d1:a4:57:5a:b1:89:70:ca:ca:94:a2:
        d9:6f:74:57:13:97:59:db:10:3c:f3:55:2e:8e:a4:52:6a:af:
        65:66:72:6b:b2:54:ba:1c:dd:4a:82:3e:c9:c8:84:b9:c3:f3:
        d9:96
-----BEGIN CERTIFICATE-----
MIIEDzCCA3igAwIBAgIBCDANBgkqhkiG9w0BAQQFADCBqjELMAkGA1UEBhMCTkwx
FjAUBgNVBAgTDU5vb3JkLUhvbGxhbmQxEjAQBgNVBAcTCUFtc3RlcmRhbTEgMB4G
A1UEChMXVW5pdmVyc2l0eSBvZiBBbXN0ZXJkYW0xDDAKBgNVBAsTA0hDUzEXMBUG
A1UEAxMOSmFuIFdpZWxlbWFrZXIxJjAkBgkqhkiG9w0BCQEWF3dpZWxlbWFrQHNj
aWVuY2UudXZhLm5sMB4XDTA2MDIxMzE1MTQ0N1oXDTA3MDIxMzE1MTQ0N1owga0x
CzAJBgNVBAYTAk5MMRYwFAYDVQQIEw1Ob29yZC1Ib2xsYW5kMRIwEAYDVQQHEwlB
bXN0ZXJkYW0xIDAeBgNVBAoTF1VuaXZlcnNpdHkgb2YgQW1zdGVyZGFtMQ8wDQYD
VQQLEwZTZXJ2ZXIxFzAVBgNVBAMTDkphbiBXaWVsZW1ha2VyMSYwJAYJKoZIhvcN
AQkBFhd3aWVsZW1ha0BzY2llbmNlLnV2YS5ubDCBnzANBgkqhkiG9w0BAQEFAAOB
jQAwgYkCgYEAvRlJo1tEYRlHMfTVjMK8/IYIwI/THB3G90+T+NFXvxfWxds08/yv
Df8LdGF2FLByiQM3XNZHbsIMNfl/UiN5S65Z2K4J9Vth7dkpRYDf/Ju7f1o7CN11
KynoB6pJKbpM6Dmznr4DceewAhQ63ikXhhRoskmqnGQBYBuff+CrfIsCAwEAAaOC
AT4wggE6MAkGA1UdEwQCMAAwLAYJYIZIAYb4QgENBB8WHU9wZW5TU0wgR2VuZXJh
dGVkIENlcnRpZmljYXRlMB0GA1UdDgQWBBSPH8m4Ey6MCoWzULRX52wJFl/OYjCB
3wYDVR0jBIHXMIHUgBRrt+scLuI6iTVYghuLcyPPF9jia6GBsKSBrTCBqjELMAkG
A1UEBhMCTkwxFjAUBgNVBAgTDU5vb3JkLUhvbGxhbmQxEjAQBgNVBAcTCUFtc3Rl
cmRhbTEgMB4GA1UEChMXVW5pdmVyc2l0eSBvZiBBbXN0ZXJkYW0xDDAKBgNVBAsT
A0hDUzEXMBUGA1UEAxMOSmFuIFdpZWxlbWFrZXIxJjAkBgkqhkiG9w0BCQEWF3dp
ZWxlbWFrQHNjaWVuY2UudXZhLm5sggkA2k/WUfFhQcgwDQYJKoZIhvcNAQEEBQAD
gYEAEYgoHz1tdsPu3jtWe2eqzcxTVUZmdlb+m0H39Ndnj1EYYzu2SGYtqo0mPziU
a8fkwQvbxvxpEmBapn3MJpU4IzQhVp3DEvgEzMskTMXkg9GkV1qxiXDKypSi2W90
VxOXWdsQPPNVLo6kUmqvZWZya7JUuhzdSoI+yciEucPz2ZY=
-----END CERTIFICATE-----
