Certificate:
    Data:
        Version: 3 (0x2)
        Serial Number: 9 (0x9)
        Signature Algorithm: md5WithRSAEncryption
        Issuer: C=NL, ST=Noord-Holland, L=Amsterdam, O=University of Amsterdam, OU=HCS, CN=Jan Wielemaker/emailAddress=wielemak@science.uva.nl
        Validity
            Not Before: Feb 13 15:17:01 2006 GMT
            Not After : Feb 13 15:17:01 2007 GMT
        Subject: C=NL, ST=Noord-Holland, L=Amsterdam, O=University of Amsterdam, OU=Client, CN=Jan Wielemaker/emailAddress=wielemak@science.uva.nl
        Subject Public Key Info:
            Public Key Algorithm: rsaEncryption
            RSA Public Key: (1024 bit)
                Modulus (1024 bit):
                    00:b0:f8:4b:6f:fb:04:72:e5:79:5e:07:14:45:d3:
                    9d:4f:2f:ab:ee:ba:6e:07:52:ce:34:37:b5:4b:31:
                    a8:0f:02:a5:24:bb:41:37:6c:2f:17:e2:7f:fe:c0:
                    2a:84:6d:e7:3b:fb:b9:4a:df:09:ea:0d:47:2a:d0:
                    fe:7b:82:12:ca:6b:5f:70:bb:a5:91:a3:d0:f9:4c:
                    c7:7b:4b:8d:7f:a7:6a:f9:27:34:32:43:7b:f2:e4:
                    d6:8f:d2:42:ed:21:28:1c:67:62:6e:84:75:ab:da:
                    90:a8:1e:09:70:47:c5:51:ae:d1:74:88:73:74:e7:
                    65:f3:ea:4d:e0:75:a6:64:6f
                Exponent: 65537 (0x10001)
        X509v3 extensions:
            X509v3 Basic Constraints: 
                CA:FALSE
            Netscape Comment: 
                OpenSSL Generated Certificate
            X509v3 Subject Key Identifier: 
                F1:3E:D8:C4:80:01:24:70:79:03:AB:76:81:A4:4F:50:A8:F1:B2:FD
            X509v3 Authority Key Identifier: 
                keyid:6B:B7:EB:1C:2E:E2:3A:89:35:58:82:1B:8B:73:23:CF:17:D8:E2:6B
                DirName:/C=NL/ST=Noord-Holland/L=Amsterdam/O=University of Amsterdam/OU=HCS/CN=Jan Wielemaker/emailAddress=wielemak@science.uva.nl
                serial:DA:4F:D6:51:F1:61:41:C8

    Signature Algorithm: md5WithRSAEncryption
        40:20:09:b8:51:b6:b5:aa:94:fa:e4:e7:45:5a:16:c9:f4:d8:
        7e:8d:a1:dd:6d:f6:bf:2a:c5:98:2a:8b:79:47:c9:30:11:fe:
        f4:4e:e2:d7:c1:bf:43:be:53:76:ee:0c:b3:d9:52:3b:42:6f:
        56:d6:4d:65:df:37:34:69:39:f2:5e:2b:a2:8f:46:e5:a0:84:
        26:8d:8a:cc:da:b0:22:2b:eb:d9:e0:50:d9:c2:93:11:21:65:
        d0:b3:49:ad:5c:41:93:7b:3a:3d:fa:0c:7f:81:e0:b3:2b:65:
        22:cc:7c:cb:70:b2:80:66:41:ae:3e:f6:ee:9c:f6:6d:6d:9b:
        01:20
-----BEGIN CERTIFICATE-----
MIIEDzCCA3igAwIBAgIBCTANBgkqhkiG9w0BAQQFADCBqjELMAkGA1UEBhMCTkwx
FjAUBgNVBAgTDU5vb3JkLUhvbGxhbmQxEjAQBgNVBAcTCUFtc3RlcmRhbTEgMB4G
A1UEChMXVW5pdmVyc2l0eSBvZiBBbXN0ZXJkYW0xDDAKBgNVBAsTA0hDUzEXMBUG
A1UEAxMOSmFuIFdpZWxlbWFrZXIxJjAkBgkqhkiG9w0BCQEWF3dpZWxlbWFrQHNj
aWVuY2UudXZhLm5sMB4XDTA2MDIxMzE1MTcwMVoXDTA3MDIxMzE1MTcwMVowga0x
CzAJBgNVBAYTAk5MMRYwFAYDVQQIEw1Ob29yZC1Ib2xsYW5kMRIwEAYDVQQHEwlB
bXN0ZXJkYW0xIDAeBgNVBAoTF1VuaXZlcnNpdHkgb2YgQW1zdGVyZGFtMQ8wDQYD
VQQLEwZDbGllbnQxFzAVBgNVBAMTDkphbiBXaWVsZW1ha2VyMSYwJAYJKoZIhvcN
AQkBFhd3aWVsZW1ha0BzY2llbmNlLnV2YS5ubDCBnzANBgkqhkiG9w0BAQEFAAOB
jQAwgYkCgYEAsPhLb/sEcuV5XgcURdOdTy+r7rpuB1LONDe1SzGoDwKlJLtBN2wv
F+J//sAqhG3nO/u5St8J6g1HKtD+e4ISymtfcLulkaPQ+UzHe0uNf6dq+Sc0MkN7
8uTWj9JC7SEoHGdiboR1q9qQqB4JcEfFUa7RdIhzdOdl8+pN4HWmZG8CAwEAAaOC
AT4wggE6MAkGA1UdEwQCMAAwLAYJYIZIAYb4QgENBB8WHU9wZW5TU0wgR2VuZXJh
dGVkIENlcnRpZmljYXRlMB0GA1UdDgQWBBTxPtjEgAEkcHkDq3aBpE9QqPGy/TCB
3wYDVR0jBIHXMIHUgBRrt+scLuI6iTVYghuLcyPPF9jia6GBsKSBrTCBqjELMAkG
A1UEBhMCTkwxFjAUBgNVBAgTDU5vb3JkLUhvbGxhbmQxEjAQBgNVBAcTCUFtc3Rl
cmRhbTEgMB4GA1UEChMXVW5pdmVyc2l0eSBvZiBBbXN0ZXJkYW0xDDAKBgNVBAsT
A0hDUzEXMBUGA1UEAxMOSmFuIFdpZWxlbWFrZXIxJjAkBgkqhkiG9w0BCQEWF3dp
ZWxlbWFrQHNjaWVuY2UudXZhLm5sggkA2k/WUfFhQcgwDQYJKoZIhvcNAQEEBQAD
gYEAQCAJuFG2taqU+uTnRVoWyfTYfo2h3W32vyrFmCqLeUfJMBH+9E7i18G/Q75T
du4Ms9lSO0JvVtZNZd83NGk58l4roo9G5aCEJo2KzNqwIivr2eBQ2cKTESFl0LNJ
rVxBk3s6PfoMf4HgsytlIsx8y3CygGZBrj727pz2bW2bASA=
-----END CERTIFICATE-----
