Certificate:
    Data:
        Version: 3 (0x2)
        Serial Number:
            a6:11:83:6b:46:29:8a:70
        Signature Algorithm: sha1WithRSAEncryption
        Issuer: C=NL, ST=Noord-Holland, O=Diff Automatisering, OU=Support group, CN=J. van der Steen/emailAddress=info@diff.nl
        Validity
            Not Before: Feb 26 14:05:35 2007 GMT
            Not After : Feb 26 14:05:35 2008 GMT
        Subject: C=NL, ST=Noord-Holland, L=Amsterdam, O=Diff Automatisering, OU=Client, CN=J. van der Steen/emailAddress=J.van.der.Steen@diff.nl
        Subject Public Key Info:
            Public Key Algorithm: rsaEncryption
            RSA Public Key: (1024 bit)
                Modulus (1024 bit):
                    00:b5:a6:ca:78:6a:ea:27:8a:6b:b0:95:13:9a:4b:
                    89:bb:75:d3:f3:92:a7:23:ca:e8:5b:b1:f9:bd:a5:
                    28:cd:a5:9f:2b:70:1d:b9:f6:3d:d6:7c:82:31:a6:
                    3c:8a:b4:c2:d2:82:40:37:b7:de:5d:65:ae:72:84:
                    fc:ca:1a:99:aa:ab:6b:fc:1b:7d:c0:7f:5b:53:d4:
                    e1:03:a0:bc:19:7c:5d:24:54:05:8c:a4:1c:86:2a:
                    e3:57:e7:94:75:a0:4b:c7:b1:8f:2d:6c:a1:67:8f:
                    da:ee:f2:15:18:fe:be:7b:c3:60:6b:12:8d:2f:98:
                    0a:98:09:98:79:dc:3c:f5:41
                Exponent: 65537 (0x10001)
        X509v3 extensions:
            X509v3 Basic Constraints: 
                CA:FALSE
            Netscape Comment: 
                OpenSSL Generated Certificate
            X509v3 Subject Key Identifier: 
                D0:A9:05:A6:A1:14:A9:9B:08:CC:FF:CB:C6:7F:01:6F:38:6F:9B:52
            X509v3 Authority Key Identifier: 
                keyid:20:1B:40:E4:00:18:7C:E6:67:7A:80:16:FE:15:07:9E:BD:77:27:26

    Signature Algorithm: sha1WithRSAEncryption
        34:ea:43:5a:99:f9:66:ea:29:3b:c9:b9:b7:dd:b8:c4:a2:4d:
        f2:d6:3d:37:ae:87:ba:bf:9b:87:f0:02:02:4b:92:ef:f3:ae:
        71:a7:89:c9:55:32:9f:ee:ae:76:c6:ba:55:a6:88:86:88:87:
        e1:7a:cb:c0:af:77:c5:41:09:76:a2:bd:ec:cb:f6:92:33:13:
        c8:d6:e8:a7:f7:2d:26:6b:af:22:9b:ff:b8:67:78:b2:61:00:
        44:7e:5c:97:6a:f3:f7:8a:e4:3d:a1:7c:51:d7:a7:18:9b:81:
        fc:73:a6:ae:84:28:95:93:58:0a:c3:33:57:f4:b7:19:35:5d:
        10:b7
-----BEGIN CERTIFICATE-----
MIIDOTCCAqKgAwIBAgIJAKYRg2tGKYpwMA0GCSqGSIb3DQEBBQUAMIGTMQswCQYD
VQQGEwJOTDEWMBQGA1UECBMNTm9vcmQtSG9sbGFuZDEcMBoGA1UEChMTRGlmZiBB
dXRvbWF0aXNlcmluZzEWMBQGA1UECxMNU3VwcG9ydCBncm91cDEZMBcGA1UEAxMQ
Si4gdmFuIGRlciBTdGVlbjEbMBkGCSqGSIb3DQEJARYMaW5mb0BkaWZmLm5sMB4X
DTA3MDIyNjE0MDUzNVoXDTA4MDIyNjE0MDUzNVowgasxCzAJBgNVBAYTAk5MMRYw
FAYDVQQIEw1Ob29yZC1Ib2xsYW5kMRIwEAYDVQQHEwlBbXN0ZXJkYW0xHDAaBgNV
BAoTE0RpZmYgQXV0b21hdGlzZXJpbmcxDzANBgNVBAsTBkNsaWVudDEZMBcGA1UE
AxMQSi4gdmFuIGRlciBTdGVlbjEmMCQGCSqGSIb3DQEJARYXSi52YW4uZGVyLlN0
ZWVuQGRpZmYubmwwgZ8wDQYJKoZIhvcNAQEBBQADgY0AMIGJAoGBALWmynhq6ieK
a7CVE5pLibt10/OSpyPK6Fux+b2lKM2lnytwHbn2PdZ8gjGmPIq0wtKCQDe33l1l
rnKE/Moamaqra/wbfcB/W1PU4QOgvBl8XSRUBYykHIYq41fnlHWgS8exjy1soWeP
2u7yFRj+vnvDYGsSjS+YCpgJmHncPPVBAgMBAAGjezB5MAkGA1UdEwQCMAAwLAYJ
YIZIAYb4QgENBB8WHU9wZW5TU0wgR2VuZXJhdGVkIENlcnRpZmljYXRlMB0GA1Ud
DgQWBBTQqQWmoRSpmwjM/8vGfwFvOG+bUjAfBgNVHSMEGDAWgBQgG0DkABh85md6
gBb+FQeevXcnJjANBgkqhkiG9w0BAQUFAAOBgQA06kNamflm6ik7ybm33bjEok3y
1j03roe6v5uH8AICS5Lv865xp4nJVTKf7q52xrpVpoiGiIfhesvAr3fFQQl2or3s
y/aSMxPI1uin9y0ma68im/+4Z3iyYQBEflyXavP3iuQ9oXxR16cYm4H8c6auhCiV
k1gKwzNX9LcZNV0Qtw==
-----END CERTIFICATE-----
