Certificate:
    Data:
        Version: 1 (0x0)
        Serial Number: 4 (0x4)
        Signature Algorithm: md5WithRSAEncryption
        Issuer: C=NL, ST=Noord-Holland, L=Amsterdam, O=Diff Automatisering, OU=Support group, CN=J. van der Steen/Email=info@diff.nl
        Validity
            Not Before: Jul  1 00:00:00 2004
            Not After : Jul  1 00:00:00 2005
        Subject: C=NL, ST=Noord-Holland, O=Diff Automatisering, OU=Client, CN=J. van der Steen/Email=J.van.der.Steen@diff.nl
        Subject Public Key Info:
            Public Key Algorithm: rsaEncryption
            RSA Public Key: (1024 bit)
                Modulus (1024 bit):
                    00:bf:92:fd:e7:2b:64:6f:5e:f2:b1:46:b8:3f:8b:
                    7a:b1:26:9d:04:aa:b0:0b:9f:09:a9:d9:12:f1:4b:
                    b9:bb:7f:f3:46:97:d0:f6:7f:21:22:1a:e0:5d:49:
                    cc:8e:7d:7d:de:01:68:d8:b6:1c:cb:ea:f3:1b:a8:
                    93:c1:3a:7d:3e:5d:df:a0:3c:72:b1:96:83:60:32:
                    8f:b7:4f:b2:64:42:1e:48:09:e6:a4:2a:5b:1d:dc:
                    d0:18:ff:a9:31:69:4a:45:1e:53:d5:f2:99:c6:33:
                    29:32:b4:aa:e4:9b:d1:1f:94:c5:17:96:d1:0b:30:
                    4c:d4:b5:5f:dc:ad:fe:19:81
                Exponent: 65537 (0x10001)
    Signature Algorithm: md5WithRSAEncryption
        27:86:3e:42:a4:c1:37:c6:ee:64:9a:c1:a7:ff:81:d9:17:aa:
        9a:33:40:03:f5:86:18:49:45:a0:f2:4b:a8:34:08:05:a7:2e:
        dd:67:c5:4e:96:53:b6:f5:aa:2d:12:66:42:5f:e1:fa:f7:f4:
        bf:26:81:b0:1b:86:19:88:27:2c:5d:f7:46:48:de:f4:3f:ca:
        2c:6f:14:96:b6:10:1c:19:8f:a1:4e:c5:5f:36:d0:bd:5f:a7:
        3a:c5:76:65:aa:53:fb:a0:a2:3e:10:3e:bc:c8:33:24:d1:58:
        3b:c9:58:64:41:5b:34:a0:a3:53:9e:f5:64:62:3a:a5:72:6b:
        32:c7
-----BEGIN CERTIFICATE-----
MIICtzCCAiACAQQwDQYJKoZIhvcNAQEEBQAwgacxCzAJBgNVBAYTAk5MMRYwFAYD
VQQIEw1Ob29yZC1Ib2xsYW5kMRIwEAYDVQQHEwlBbXN0ZXJkYW0xHDAaBgNVBAoT
E0RpZmYgQXV0b21hdGlzZXJpbmcxFjAUBgNVBAsTDVN1cHBvcnQgZ3JvdXAxGTAX
BgNVBAMTEEouIHZhbiBkZXIgU3RlZW4xGzAZBgkqhkiG9w0BCQEWDGluZm9AZGlm
Zi5ubDAmFxEwNDA3MDEwMDAwMDArMDEwMBcRMDUwNzAxMDAwMDAwKzAxMDAwgZcx
CzAJBgNVBAYTAk5MMRYwFAYDVQQIEw1Ob29yZC1Ib2xsYW5kMRwwGgYDVQQKExNE
aWZmIEF1dG9tYXRpc2VyaW5nMQ8wDQYDVQQLEwZDbGllbnQxGTAXBgNVBAMTEEou
IHZhbiBkZXIgU3RlZW4xJjAkBgkqhkiG9w0BCQEWF0oudmFuLmRlci5TdGVlbkBk
aWZmLm5sMIGfMA0GCSqGSIb3DQEBAQUAA4GNADCBiQKBgQC/kv3nK2RvXvKxRrg/
i3qxJp0EqrALnwmp2RLxS7m7f/NGl9D2fyEiGuBdScyOfX3eAWjYthzL6vMbqJPB
On0+Xd+gPHKxloNgMo+3T7JkQh5ICeakKlsd3NAY/6kxaUpFHlPV8pnGMykytKrk
m9EflMUXltELMEzUtV/crf4ZgQIDAQABMA0GCSqGSIb3DQEBBAUAA4GBACeGPkKk
wTfG7mSawaf/gdkXqpozQAP1hhhJRaDyS6g0CAWnLt1nxU6WU7b1qi0SZkJf4fr3
9L8mgbAbhhmIJyxd90ZI3vQ/yixvFJa2EBwZj6FOxV820L1fpzrFdmWqU/ugoj4Q
PrzIMyTRWDvJWGRBWzSgo1Oe9WRiOqVyazLH
-----END CERTIFICATE-----
