Certificate:
    Data:
        Version: 3 (0x2)
        Serial Number:
            a6:11:83:6b:46:29:8a:6e
        Signature Algorithm: sha1WithRSAEncryption
        Issuer: C=NL, ST=Noord-Holland, O=Diff Automatisering, OU=Support group, CN=J. van der Steen/emailAddress=info@diff.nl
        Validity
            Not Before: Feb 26 12:35:42 2007 GMT
            Not After : Feb 26 12:35:42 2008 GMT
        Subject: C=NL, ST=Noord-Holland, L=Amsterdam, O=Diff Automatisering, OU=Client, CN=J. van der Steen/emailAddress=J.van.der.Steen@diff.nl
        Subject Public Key Info:
            Public Key Algorithm: rsaEncryption
            RSA Public Key: (1024 bit)
                Modulus (1024 bit):
                    00:9f:6c:3d:70:63:4f:d9:73:85:bf:88:b3:fc:d4:
                    31:5e:ee:59:e3:80:5d:5f:78:05:ff:4f:4c:d5:4e:
                    c8:15:8b:4a:ba:b0:e4:18:ca:5b:a6:b3:0d:ff:30:
                    fd:d0:b7:35:1c:e5:f7:db:f7:7e:58:7c:05:76:cf:
                    21:ff:89:ae:6d:3c:c9:0a:75:ff:a3:d3:9d:b4:84:
                    2e:e6:4b:cd:95:55:84:e8:7a:34:86:29:64:06:83:
                    fb:23:f6:69:31:0d:93:c1:69:36:b4:fe:6e:97:c1:
                    7a:9d:80:10:1c:46:75:ab:02:cc:09:6d:22:30:8b:
                    55:4f:99:ff:01:3d:37:29:f9
                Exponent: 65537 (0x10001)
        X509v3 extensions:
            X509v3 Basic Constraints: 
                CA:FALSE
            Netscape Comment: 
                OpenSSL Generated Certificate
            X509v3 Subject Key Identifier: 
                FF:99:14:68:CC:7C:90:BC:82:58:51:0C:F3:E9:65:46:E0:3E:06:CA
            X509v3 Authority Key Identifier: 
                keyid:20:1B:40:E4:00:18:7C:E6:67:7A:80:16:FE:15:07:9E:BD:77:27:26

    Signature Algorithm: sha1WithRSAEncryption
        99:a9:22:e7:42:8e:93:c1:ed:88:2d:18:63:04:88:65:68:15:
        95:7f:a4:52:c7:88:88:65:ce:d2:07:fb:94:cd:d7:f5:f8:8f:
        20:b0:bc:dc:a3:ed:bf:9a:1b:15:a8:e1:a7:ba:b2:78:41:6d:
        a8:1c:ac:86:c1:9c:ae:e0:fb:98:0d:26:68:ae:f2:cd:29:ee:
        97:1f:44:83:49:d0:85:59:d1:d3:ca:27:ac:ce:88:f2:b6:ba:
        6b:20:fe:61:d6:66:43:24:dc:80:59:2d:04:79:88:5c:7f:af:
        0f:4f:b8:c0:a8:8c:b8:a2:d1:49:d1:08:e8:d3:35:89:6c:12:
        cf:66
-----BEGIN CERTIFICATE-----
MIIDOTCCAqKgAwIBAgIJAKYRg2tGKYpuMA0GCSqGSIb3DQEBBQUAMIGTMQswCQYD
VQQGEwJOTDEWMBQGA1UECBMNTm9vcmQtSG9sbGFuZDEcMBoGA1UEChMTRGlmZiBB
dXRvbWF0aXNlcmluZzEWMBQGA1UECxMNU3VwcG9ydCBncm91cDEZMBcGA1UEAxMQ
Si4gdmFuIGRlciBTdGVlbjEbMBkGCSqGSIb3DQEJARYMaW5mb0BkaWZmLm5sMB4X
DTA3MDIyNjEyMzU0MloXDTA4MDIyNjEyMzU0MlowgasxCzAJBgNVBAYTAk5MMRYw
FAYDVQQIEw1Ob29yZC1Ib2xsYW5kMRIwEAYDVQQHEwlBbXN0ZXJkYW0xHDAaBgNV
BAoTE0RpZmYgQXV0b21hdGlzZXJpbmcxDzANBgNVBAsTBkNsaWVudDEZMBcGA1UE
AxMQSi4gdmFuIGRlciBTdGVlbjEmMCQGCSqGSIb3DQEJARYXSi52YW4uZGVyLlN0
ZWVuQGRpZmYubmwwgZ8wDQYJKoZIhvcNAQEBBQADgY0AMIGJAoGBAJ9sPXBjT9lz
hb+Is/zUMV7uWeOAXV94Bf9PTNVOyBWLSrqw5BjKW6azDf8w/dC3NRzl99v3flh8
BXbPIf+Jrm08yQp1/6PTnbSELuZLzZVVhOh6NIYpZAaD+yP2aTENk8FpNrT+bpfB
ep2AEBxGdasCzAltIjCLVU+Z/wE9Nyn5AgMBAAGjezB5MAkGA1UdEwQCMAAwLAYJ
YIZIAYb4QgENBB8WHU9wZW5TU0wgR2VuZXJhdGVkIENlcnRpZmljYXRlMB0GA1Ud
DgQWBBT/mRRozHyQvIJYUQzz6WVG4D4GyjAfBgNVHSMEGDAWgBQgG0DkABh85md6
gBb+FQeevXcnJjANBgkqhkiG9w0BAQUFAAOBgQCZqSLnQo6Twe2ILRhjBIhlaBWV
f6RSx4iIZc7SB/uUzdf1+I8gsLzco+2/mhsVqOGnurJ4QW2oHKyGwZyu4PuYDSZo
rvLNKe6XH0SDSdCFWdHTyieszojytrprIP5h1mZDJNyAWS0EeYhcf68PT7jAqIy4
otFJ0Qjo0zWJbBLPZg==
-----END CERTIFICATE-----
