Certificate:
    Data:
        Version: 3 (0x2)
        Serial Number: 2 (0x2)
        Signature Algorithm: md5WithRSAEncryption
        Issuer: C=NL, ST=Noord-Holland, L=Amsterdam, O=Diff Automatisering, OU=Support group, CN=J. van der Steen/emailAddress=info@diff.nl
        Validity
            Not Before: May 26 12:13:25 2004 GMT
            Not After : May 26 12:13:25 2005 GMT
        Subject: C=NL, ST=Noord-Holland, L=Amsterdam, O=Diff Automatisering, OU=Client, CN=J. van der Steen/emailAddress=J.van.der.Steen@diff.nl
        Subject Public Key Info:
            Public Key Algorithm: rsaEncryption
            RSA Public Key: (1024 bit)
                Modulus (1024 bit):
                    00:ac:40:7e:06:62:41:b0:11:7f:1c:ac:3c:e8:45:
                    65:b3:e0:5e:70:f0:f5:e3:cc:88:1a:9d:7d:5c:83:
                    fe:58:f3:ae:49:1b:47:92:40:6c:94:fb:f3:db:88:
                    41:25:e4:5b:db:9a:58:f1:07:5e:96:80:b5:fc:b7:
                    fd:fb:89:f7:a4:10:6d:3e:c4:77:16:26:0f:ea:ec:
                    21:89:9c:e8:46:48:20:4d:17:d0:e7:11:a1:9f:4d:
                    27:29:da:8f:39:c0:14:e6:9e:a7:b6:86:57:51:a3:
                    25:03:c2:5e:37:97:51:2f:5a:d4:a9:3a:89:9c:14:
                    80:9d:16:e6:c0:70:44:05:01
                Exponent: 65537 (0x10001)
        X509v3 extensions:
            X509v3 Basic Constraints: 
                CA:FALSE
            Netscape Comment: 
                OpenSSL Generated Certificate
            X509v3 Subject Key Identifier: 
                0F:57:6F:28:2E:DF:4C:27:F4:B3:44:C0:CB:55:A5:F4:7E:04:05:6B
            X509v3 Authority Key Identifier: 
                keyid:37:2F:FA:F6:81:4A:E7:AD:E3:CC:4B:44:27:C0:53:0C:3A:CE:74:DE
                DirName:/C=NL/ST=Noord-Holland/L=Amsterdam/O=Diff Automatisering/OU=Support group/CN=J. van der Steen/emailAddress=info@diff.nl
                serial:00

    Signature Algorithm: md5WithRSAEncryption
        d0:90:2c:61:49:ed:a6:ae:88:bd:ec:42:85:b2:b1:20:d2:90:
        ae:56:58:37:e6:d3:0c:1c:e4:69:22:69:2b:e8:11:2f:1d:db:
        e8:99:50:2c:f5:a9:04:e2:7e:18:ae:d9:fb:73:d2:3f:f3:70:
        51:2f:2c:1b:24:bf:a3:9e:c2:de:51:6f:e6:1a:7f:bf:f2:5f:
        48:88:83:21:fd:a8:cd:cf:ef:74:4f:0c:bf:e8:d3:25:6d:02:
        35:66:a5:34:81:f1:a3:bb:61:a7:9f:bc:47:27:28:c7:6d:f1:
        50:dc:68:9d:62:2d:33:13:ee:15:d4:3a:4d:89:c5:db:70:da:
        6c:32
-----BEGIN CERTIFICATE-----
MIID/zCCA2igAwIBAgIBAjANBgkqhkiG9w0BAQQFADCBpzELMAkGA1UEBhMCTkwx
FjAUBgNVBAgTDU5vb3JkLUhvbGxhbmQxEjAQBgNVBAcTCUFtc3RlcmRhbTEcMBoG
A1UEChMTRGlmZiBBdXRvbWF0aXNlcmluZzEWMBQGA1UECxMNU3VwcG9ydCBncm91
cDEZMBcGA1UEAxMQSi4gdmFuIGRlciBTdGVlbjEbMBkGCSqGSIb3DQEJARYMaW5m
b0BkaWZmLm5sMB4XDTA0MDUyNjEyMTMyNVoXDTA1MDUyNjEyMTMyNVowgasxCzAJ
BgNVBAYTAk5MMRYwFAYDVQQIEw1Ob29yZC1Ib2xsYW5kMRIwEAYDVQQHEwlBbXN0
ZXJkYW0xHDAaBgNVBAoTE0RpZmYgQXV0b21hdGlzZXJpbmcxDzANBgNVBAsTBkNs
aWVudDEZMBcGA1UEAxMQSi4gdmFuIGRlciBTdGVlbjEmMCQGCSqGSIb3DQEJARYX
Si52YW4uZGVyLlN0ZWVuQGRpZmYubmwwgZ8wDQYJKoZIhvcNAQEBBQADgY0AMIGJ
AoGBAKxAfgZiQbARfxysPOhFZbPgXnDw9ePMiBqdfVyD/ljzrkkbR5JAbJT789uI
QSXkW9uaWPEHXpaAtfy3/fuJ96QQbT7EdxYmD+rsIYmc6EZIIE0X0OcRoZ9NJyna
jznAFOaep7aGV1GjJQPCXjeXUS9a1Kk6iZwUgJ0W5sBwRAUBAgMBAAGjggEzMIIB
LzAJBgNVHRMEAjAAMCwGCWCGSAGG+EIBDQQfFh1PcGVuU1NMIEdlbmVyYXRlZCBD
ZXJ0aWZpY2F0ZTAdBgNVHQ4EFgQUD1dvKC7fTCf0s0TAy1Wl9H4EBWswgdQGA1Ud
IwSBzDCByYAUNy/69oFK563jzEtEJ8BTDDrOdN6hga2kgaowgacxCzAJBgNVBAYT
Ak5MMRYwFAYDVQQIEw1Ob29yZC1Ib2xsYW5kMRIwEAYDVQQHEwlBbXN0ZXJkYW0x
HDAaBgNVBAoTE0RpZmYgQXV0b21hdGlzZXJpbmcxFjAUBgNVBAsTDVN1cHBvcnQg
Z3JvdXAxGTAXBgNVBAMTEEouIHZhbiBkZXIgU3RlZW4xGzAZBgkqhkiG9w0BCQEW
DGluZm9AZGlmZi5ubIIBADANBgkqhkiG9w0BAQQFAAOBgQDQkCxhSe2mroi97EKF
srEg0pCuVlg35tMMHORpImkr6BEvHdvomVAs9akE4n4Yrtn7c9I/83BRLywbJL+j
nsLeUW/mGn+/8l9IiIMh/ajNz+90Twy/6NMlbQI1ZqU0gfGju2Gnn7xHJyjHbfFQ
3GidYi0zE+4V1DpNicXbcNpsMg==
-----END CERTIFICATE-----
