Certificate:
    Data:
        Version: 3 (0x2)
        Serial Number: 3 (0x3)
        Signature Algorithm: md5WithRSAEncryption
        Issuer: C=NL, ST=Noord-Holland, L=Amsterdam, O=Diff Automatisering, OU=Support group, CN=J. van der Steen/Email=info@diff.nl
        Validity
            Not Before: Jun  7 13:09:48 2004 GMT
            Not After : Jun  7 13:09:48 2005 GMT
        Subject: C=NL, ST=Noord-Holland, L=Amsterdam, O=Diff Automatisering, OU=Client, CN=J. van der Steen/Email=J.van.der.Steen@diff.nl
        Subject Public Key Info:
            Public Key Algorithm: rsaEncryption
            RSA Public Key: (1024 bit)
                Modulus (1024 bit):
                    00:ed:3b:38:c1:57:bb:97:27:e9:2e:04:cc:a1:04:
                    1e:85:98:0c:e5:8f:ba:b5:80:31:da:f6:fc:99:8d:
                    19:46:5d:d5:69:21:39:e7:ca:6a:d9:d7:f5:29:7b:
                    c7:2a:19:a9:d3:76:79:ca:4b:b4:b0:03:59:c0:15:
                    5f:b7:dc:10:9c:a7:5b:e2:6e:bf:7a:7d:08:fa:d9:
                    ea:3b:4f:fc:32:e7:1c:58:d7:59:26:9d:99:c2:10:
                    a9:66:a0:d3:91:b2:69:11:d2:e2:47:08:ae:b3:de:
                    53:44:6d:df:ec:19:f5:71:d4:0a:70:87:49:96:46:
                    13:90:1e:c6:1d:21:00:e7:7b
                Exponent: 65537 (0x10001)
        X509v3 extensions:
            X509v3 Basic Constraints: 
                CA:FALSE
            Netscape Comment: 
                OpenSSL Generated Certificate
            X509v3 Subject Key Identifier: 
                FA:85:C4:19:29:F5:ED:B9:0F:84:A8:A2:80:82:93:FD:7F:6E:83:3D
            X509v3 Authority Key Identifier: 
                keyid:37:2F:FA:F6:81:4A:E7:AD:E3:CC:4B:44:27:C0:53:0C:3A:CE:74:DE
                DirName:/C=NL/ST=Noord-Holland/L=Amsterdam/O=Diff Automatisering/OU=Support group/CN=J. van der Steen/Email=info@diff.nl
                serial:00

    Signature Algorithm: md5WithRSAEncryption
        4a:28:0e:8d:56:43:f9:11:ed:02:e0:4e:56:44:58:1e:5a:4a:
        97:dc:47:f7:36:7b:b9:f4:40:c5:41:44:2f:1b:12:65:13:9c:
        ee:8a:41:69:40:61:ba:64:ac:c0:fb:ca:b2:84:93:69:d4:e5:
        7d:1c:70:e7:20:35:d3:3c:ff:4c:5f:e9:f4:f8:a0:65:b0:c8:
        b0:ae:f7:03:b8:95:bb:e6:6c:f4:44:fe:86:56:1c:3e:92:8f:
        b7:cd:ab:71:41:f6:b4:8f:6c:36:3d:e6:21:f8:28:87:c5:18:
        41:f3:3b:2a:90:c8:04:e8:20:9c:4b:35:f0:37:0b:89:f1:a9:
        0d:5c
-----BEGIN CERTIFICATE-----
MIID/zCCA2igAwIBAgIBAzANBgkqhkiG9w0BAQQFADCBpzELMAkGA1UEBhMCTkwx
FjAUBgNVBAgTDU5vb3JkLUhvbGxhbmQxEjAQBgNVBAcTCUFtc3RlcmRhbTEcMBoG
A1UEChMTRGlmZiBBdXRvbWF0aXNlcmluZzEWMBQGA1UECxMNU3VwcG9ydCBncm91
cDEZMBcGA1UEAxMQSi4gdmFuIGRlciBTdGVlbjEbMBkGCSqGSIb3DQEJARYMaW5m
b0BkaWZmLm5sMB4XDTA0MDYwNzEzMDk0OFoXDTA1MDYwNzEzMDk0OFowgasxCzAJ
BgNVBAYTAk5MMRYwFAYDVQQIEw1Ob29yZC1Ib2xsYW5kMRIwEAYDVQQHEwlBbXN0
ZXJkYW0xHDAaBgNVBAoTE0RpZmYgQXV0b21hdGlzZXJpbmcxDzANBgNVBAsTBkNs
aWVudDEZMBcGA1UEAxMQSi4gdmFuIGRlciBTdGVlbjEmMCQGCSqGSIb3DQEJARYX
Si52YW4uZGVyLlN0ZWVuQGRpZmYubmwwgZ8wDQYJKoZIhvcNAQEBBQADgY0AMIGJ
AoGBAO07OMFXu5cn6S4EzKEEHoWYDOWPurWAMdr2/JmNGUZd1WkhOefKatnX9Sl7
xyoZqdN2ecpLtLADWcAVX7fcEJynW+Juv3p9CPrZ6jtP/DLnHFjXWSadmcIQqWag
05GyaRHS4kcIrrPeU0Rt3+wZ9XHUCnCHSZZGE5Aexh0hAOd7AgMBAAGjggEzMIIB
LzAJBgNVHRMEAjAAMCwGCWCGSAGG+EIBDQQfFh1PcGVuU1NMIEdlbmVyYXRlZCBD
ZXJ0aWZpY2F0ZTAdBgNVHQ4EFgQU+oXEGSn17bkPhKiigIKT/X9ugz0wgdQGA1Ud
IwSBzDCByYAUNy/69oFK563jzEtEJ8BTDDrOdN6hga2kgaowgacxCzAJBgNVBAYT
Ak5MMRYwFAYDVQQIEw1Ob29yZC1Ib2xsYW5kMRIwEAYDVQQHEwlBbXN0ZXJkYW0x
HDAaBgNVBAoTE0RpZmYgQXV0b21hdGlzZXJpbmcxFjAUBgNVBAsTDVN1cHBvcnQg
Z3JvdXAxGTAXBgNVBAMTEEouIHZhbiBkZXIgU3RlZW4xGzAZBgkqhkiG9w0BCQEW
DGluZm9AZGlmZi5ubIIBADANBgkqhkiG9w0BAQQFAAOBgQBKKA6NVkP5Ee0C4E5W
RFgeWkqX3Ef3Nnu59EDFQUQvGxJlE5zuikFpQGG6ZKzA+8qyhJNp1OV9HHDnIDXT
PP9MX+n0+KBlsMiwrvcDuJW75mz0RP6GVhw+ko+3zatxQfa0j2w2PeYh+CiHxRhB
8zsqkMgE6CCcSzXwNwuJ8akNXA==
-----END CERTIFICATE-----
