Certificate:
    Data:
        Version: 3 (0x2)
        Serial Number:
            a6:11:83:6b:46:29:8a:72
        Signature Algorithm: sha1WithRSAEncryption
        Issuer: C=NL, ST=Noord-Holland, O=Diff Automatisering, OU=Support group, CN=J. van der Steen/emailAddress=info@diff.nl
        Validity
            Not Before: Jul  3 15:11:14 2008 GMT
            Not After : Nov 19 15:11:14 2035 GMT
        Subject: C=NL, ST=Noord-Holland, L=Amsterdam, O=University of Amsterdam, OU=Client, CN=Jan Wielemaker/emailAddress=wielemak@science.uva.nl
        Subject Public Key Info:
            Public Key Algorithm: rsaEncryption
            RSA Public Key: (1024 bit)
                Modulus (1024 bit):
                    00:b0:f8:4b:6f:fb:04:72:e5:79:5e:07:14:45:d3:
                    9d:4f:2f:ab:ee:ba:6e:07:52:ce:34:37:b5:4b:31:
                    a8:0f:02:a5:24:bb:41:37:6c:2f:17:e2:7f:fe:c0:
                    2a:84:6d:e7:3b:fb:b9:4a:df:09:ea:0d:47:2a:d0:
                    fe:7b:82:12:ca:6b:5f:70:bb:a5:91:a3:d0:f9:4c:
                    c7:7b:4b:8d:7f:a7:6a:f9:27:34:32:43:7b:f2:e4:
                    d6:8f:d2:42:ed:21:28:1c:67:62:6e:84:75:ab:da:
                    90:a8:1e:09:70:47:c5:51:ae:d1:74:88:73:74:e7:
                    65:f3:ea:4d:e0:75:a6:64:6f
                Exponent: 65537 (0x10001)
        X509v3 extensions:
            X509v3 Basic Constraints: 
                CA:FALSE
            Netscape Comment: 
                OpenSSL Generated Certificate
            X509v3 Subject Key Identifier: 
                F1:3E:D8:C4:80:01:24:70:79:03:AB:76:81:A4:4F:50:A8:F1:B2:FD
            X509v3 Authority Key Identifier: 
                keyid:20:1B:40:E4:00:18:7C:E6:67:7A:80:16:FE:15:07:9E:BD:77:27:26

    Signature Algorithm: sha1WithRSAEncryption
        2d:9f:13:8b:ca:d6:0a:f0:ef:75:52:ab:a0:fe:6f:f1:14:16:
        f9:4e:f5:77:ac:55:9b:bb:31:d3:fa:e5:4f:9a:83:91:7d:c5:
        90:b1:94:d1:1b:3b:a2:b4:fa:5f:43:79:20:ec:b2:48:61:fc:
        bf:75:25:75:64:2d:c6:02:61:4b:4a:d9:50:eb:bc:ba:e7:cb:
        31:91:f2:18:6b:62:8f:e4:29:ea:83:29:54:53:05:40:5c:86:
        11:d2:56:0d:4a:39:f6:b4:f0:78:86:98:15:da:3a:cd:86:7e:
        c0:bc:71:dc:7d:69:f8:0b:56:17:a3:3b:6d:e3:65:73:1d:64:
        21:f0
-----BEGIN CERTIFICATE-----
MIIDOzCCAqSgAwIBAgIJAKYRg2tGKYpyMA0GCSqGSIb3DQEBBQUAMIGTMQswCQYD
VQQGEwJOTDEWMBQGA1UECBMNTm9vcmQtSG9sbGFuZDEcMBoGA1UEChMTRGlmZiBB
dXRvbWF0aXNlcmluZzEWMBQGA1UECxMNU3VwcG9ydCBncm91cDEZMBcGA1UEAxMQ
Si4gdmFuIGRlciBTdGVlbjEbMBkGCSqGSIb3DQEJARYMaW5mb0BkaWZmLm5sMB4X
DTA4MDcwMzE1MTExNFoXDTM1MTExOTE1MTExNFowga0xCzAJBgNVBAYTAk5MMRYw
FAYDVQQIEw1Ob29yZC1Ib2xsYW5kMRIwEAYDVQQHEwlBbXN0ZXJkYW0xIDAeBgNV
BAoTF1VuaXZlcnNpdHkgb2YgQW1zdGVyZGFtMQ8wDQYDVQQLEwZDbGllbnQxFzAV
BgNVBAMTDkphbiBXaWVsZW1ha2VyMSYwJAYJKoZIhvcNAQkBFhd3aWVsZW1ha0Bz
Y2llbmNlLnV2YS5ubDCBnzANBgkqhkiG9w0BAQEFAAOBjQAwgYkCgYEAsPhLb/sE
cuV5XgcURdOdTy+r7rpuB1LONDe1SzGoDwKlJLtBN2wvF+J//sAqhG3nO/u5St8J
6g1HKtD+e4ISymtfcLulkaPQ+UzHe0uNf6dq+Sc0MkN78uTWj9JC7SEoHGdiboR1
q9qQqB4JcEfFUa7RdIhzdOdl8+pN4HWmZG8CAwEAAaN7MHkwCQYDVR0TBAIwADAs
BglghkgBhvhCAQ0EHxYdT3BlblNTTCBHZW5lcmF0ZWQgQ2VydGlmaWNhdGUwHQYD
VR0OBBYEFPE+2MSAASRweQOrdoGkT1Co8bL9MB8GA1UdIwQYMBaAFCAbQOQAGHzm
Z3qAFv4VB569dycmMA0GCSqGSIb3DQEBBQUAA4GBAC2fE4vK1grw73VSq6D+b/EU
FvlO9XesVZu7MdP65U+ag5F9xZCxlNEbO6K0+l9DeSDsskhh/L91JXVkLcYCYUtK
2VDrvLrnyzGR8hhrYo/kKeqDKVRTBUBchhHSVg1KOfa08HiGmBXaOs2GfsC8cdx9
afgLVhejO23jZXMdZCHw
-----END CERTIFICATE-----
