Certificate:
    Data:
        Version: 3 (0x2)
        Serial Number:
            a6:11:83:6b:46:29:8a:6c
        Signature Algorithm: sha1WithRSAEncryption
        Issuer: C=NL, ST=Noord-Holland, O=Diff Automatisering, OU=Support group, CN=J. van der Steen/emailAddress=info@diff.nl
        Validity
            Not Before: Feb 26 12:20:44 2007 GMT
            Not After : Feb 25 12:20:44 2010 GMT
        Subject: C=NL, ST=Noord-Holland, O=Diff Automatisering, OU=Support group, CN=J. van der Steen/emailAddress=info@diff.nl
        Subject Public Key Info:
            Public Key Algorithm: rsaEncryption
            RSA Public Key: (1024 bit)
                Modulus (1024 bit):
                    00:a3:89:65:d6:f6:34:38:be:8d:bf:0c:7b:95:0e:
                    01:0a:6e:3f:d6:54:c4:c4:d9:65:db:48:14:be:98:
                    79:e0:bc:f8:be:76:57:d3:91:f9:15:16:12:53:24:
                    ec:12:15:71:bd:c6:96:bc:cf:5c:5f:d0:1e:2d:f4:
                    79:ab:81:aa:29:76:a5:14:bb:0c:84:bd:93:84:43:
                    0b:51:ef:f4:64:8c:14:cc:6e:f2:f5:b5:cd:d7:66:
                    72:6b:96:e6:4f:e4:66:53:f0:95:7e:de:c5:8d:af:
                    ba:3b:83:43:7a:80:4b:b7:a0:47:c1:75:6e:97:3f:
                    ca:a0:bb:50:a3:a9:f3:7b:bf
                Exponent: 65537 (0x10001)
        X509v3 extensions:
            X509v3 Basic Constraints: 
                CA:FALSE
            Netscape Comment: 
                OpenSSL Generated Certificate
            X509v3 Subject Key Identifier: 
                20:1B:40:E4:00:18:7C:E6:67:7A:80:16:FE:15:07:9E:BD:77:27:26
            X509v3 Authority Key Identifier: 
                keyid:20:1B:40:E4:00:18:7C:E6:67:7A:80:16:FE:15:07:9E:BD:77:27:26

    Signature Algorithm: sha1WithRSAEncryption
        40:62:59:42:68:ac:b3:69:99:ab:01:ad:a2:71:f3:c7:01:c6:
        50:cb:1b:d1:04:df:27:95:28:67:98:c2:83:47:46:6d:95:d6:
        61:20:44:cb:b6:90:c6:f9:7b:3c:36:a0:cb:6e:89:dc:1e:f8:
        35:48:28:68:f4:9f:71:64:2d:81:9d:d0:af:cb:79:60:63:ed:
        3e:61:02:c4:96:7d:e1:4c:fe:a4:2d:94:a6:35:dc:0f:5a:09:
        18:15:5e:62:8f:af:cd:1c:62:7f:db:09:be:cf:9a:1c:66:f1:
        ad:4b:2a:b9:71:ae:d6:f4:f6:da:b9:10:d0:87:15:8e:bb:b0:
        27:6a
-----BEGIN CERTIFICATE-----
MIIDITCCAoqgAwIBAgIJAKYRg2tGKYpsMA0GCSqGSIb3DQEBBQUAMIGTMQswCQYD
VQQGEwJOTDEWMBQGA1UECBMNTm9vcmQtSG9sbGFuZDEcMBoGA1UEChMTRGlmZiBB
dXRvbWF0aXNlcmluZzEWMBQGA1UECxMNU3VwcG9ydCBncm91cDEZMBcGA1UEAxMQ
Si4gdmFuIGRlciBTdGVlbjEbMBkGCSqGSIb3DQEJARYMaW5mb0BkaWZmLm5sMB4X
DTA3MDIyNjEyMjA0NFoXDTEwMDIyNTEyMjA0NFowgZMxCzAJBgNVBAYTAk5MMRYw
FAYDVQQIEw1Ob29yZC1Ib2xsYW5kMRwwGgYDVQQKExNEaWZmIEF1dG9tYXRpc2Vy
aW5nMRYwFAYDVQQLEw1TdXBwb3J0IGdyb3VwMRkwFwYDVQQDExBKLiB2YW4gZGVy
IFN0ZWVuMRswGQYJKoZIhvcNAQkBFgxpbmZvQGRpZmYubmwwgZ8wDQYJKoZIhvcN
AQEBBQADgY0AMIGJAoGBAKOJZdb2NDi+jb8Me5UOAQpuP9ZUxMTZZdtIFL6YeeC8
+L52V9OR+RUWElMk7BIVcb3GlrzPXF/QHi30eauBqil2pRS7DIS9k4RDC1Hv9GSM
FMxu8vW1zddmcmuW5k/kZlPwlX7exY2vujuDQ3qAS7egR8F1bpc/yqC7UKOp83u/
AgMBAAGjezB5MAkGA1UdEwQCMAAwLAYJYIZIAYb4QgENBB8WHU9wZW5TU0wgR2Vu
ZXJhdGVkIENlcnRpZmljYXRlMB0GA1UdDgQWBBQgG0DkABh85md6gBb+FQeevXcn
JjAfBgNVHSMEGDAWgBQgG0DkABh85md6gBb+FQeevXcnJjANBgkqhkiG9w0BAQUF
AAOBgQBAYllCaKyzaZmrAa2icfPHAcZQyxvRBN8nlShnmMKDR0ZtldZhIETLtpDG
+Xs8NqDLboncHvg1SCho9J9xZC2BndCvy3lgY+0+YQLEln3hTP6kLZSmNdwPWgkY
FV5ij6/NHGJ/2wm+z5ocZvGtSyq5ca7W9PbauRDQhxWOu7Anag==
-----END CERTIFICATE-----
