Certificate:
    Data:
        Version: 3 (0x2)
        Serial Number:
            a6:11:83:6b:46:29:8a:6d
        Signature Algorithm: sha1WithRSAEncryption
        Issuer: C=NL, ST=Noord-Holland, O=Diff Automatisering, OU=Support group, CN=J. van der Steen/emailAddress=info@diff.nl
        Validity
            Not Before: Feb 26 12:34:30 2007 GMT
            Not After : Feb 26 12:34:30 2008 GMT
        Subject: C=NL, ST=Noord-Holland, L=Amsterdam, O=Diff Automatisering, OU=Server, CN=J. van der Steen/emailAddress=J.van.der.Steen@diff.nl
        Subject Public Key Info:
            Public Key Algorithm: rsaEncryption
            RSA Public Key: (1024 bit)
                Modulus (1024 bit):
                    00:f1:55:e0:ad:41:3c:b5:03:e9:70:64:ad:59:b0:
                    97:1f:e1:35:94:95:17:03:9e:62:a3:77:b9:0e:df:
                    e6:11:a8:70:8a:0a:72:46:a9:db:d8:ec:36:b3:0a:
                    36:e7:79:5e:9d:a2:e5:83:2d:0a:3c:9e:c9:83:9c:
                    a1:66:e8:33:b4:f4:49:78:eb:f8:fc:f7:6f:13:fa:
                    ad:9b:59:a6:65:1f:2a:8d:47:37:ac:3e:3c:8f:9d:
                    e0:18:cb:c8:9c:50:15:1d:7e:24:64:a6:b2:b8:20:
                    79:d1:b3:72:7e:b9:a2:2e:60:39:7b:a2:2d:ac:49:
                    c8:23:49:9c:09:63:a8:48:a7
                Exponent: 65537 (0x10001)
        X509v3 extensions:
            X509v3 Basic Constraints: 
                CA:FALSE
            Netscape Comment: 
                OpenSSL Generated Certificate
            X509v3 Subject Key Identifier: 
                7E:84:87:EB:A9:47:8E:4A:C6:A3:3F:36:3A:57:B5:C8:3F:C8:7B:C5
            X509v3 Authority Key Identifier: 
                keyid:20:1B:40:E4:00:18:7C:E6:67:7A:80:16:FE:15:07:9E:BD:77:27:26

    Signature Algorithm: sha1WithRSAEncryption
        2f:55:7d:f6:2e:8e:ea:cf:73:af:4d:73:a3:b1:3d:be:61:48:
        35:7b:25:ff:80:9c:5b:0a:48:25:ca:e1:f9:f9:5a:bd:0b:76:
        6e:a7:e1:5f:f3:44:b7:64:3a:1d:45:84:6a:b0:58:da:1e:9b:
        b1:ee:34:e7:47:68:be:8a:f0:0f:94:25:22:f0:0b:c7:98:da:
        46:b1:f9:39:6d:e0:56:6d:68:b8:8b:14:c0:38:54:4c:bf:77:
        63:fa:a2:1b:60:31:6a:a0:49:a9:d9:55:99:cb:b9:36:e9:e0:
        04:d9:d0:b4:d5:1c:79:98:fc:71:f6:45:40:4a:90:ab:9b:71:
        fc:3f
-----BEGIN CERTIFICATE-----
MIIDOTCCAqKgAwIBAgIJAKYRg2tGKYptMA0GCSqGSIb3DQEBBQUAMIGTMQswCQYD
VQQGEwJOTDEWMBQGA1UECBMNTm9vcmQtSG9sbGFuZDEcMBoGA1UEChMTRGlmZiBB
dXRvbWF0aXNlcmluZzEWMBQGA1UECxMNU3VwcG9ydCBncm91cDEZMBcGA1UEAxMQ
Si4gdmFuIGRlciBTdGVlbjEbMBkGCSqGSIb3DQEJARYMaW5mb0BkaWZmLm5sMB4X
DTA3MDIyNjEyMzQzMFoXDTA4MDIyNjEyMzQzMFowgasxCzAJBgNVBAYTAk5MMRYw
FAYDVQQIEw1Ob29yZC1Ib2xsYW5kMRIwEAYDVQQHEwlBbXN0ZXJkYW0xHDAaBgNV
BAoTE0RpZmYgQXV0b21hdGlzZXJpbmcxDzANBgNVBAsTBlNlcnZlcjEZMBcGA1UE
AxMQSi4gdmFuIGRlciBTdGVlbjEmMCQGCSqGSIb3DQEJARYXSi52YW4uZGVyLlN0
ZWVuQGRpZmYubmwwgZ8wDQYJKoZIhvcNAQEBBQADgY0AMIGJAoGBAPFV4K1BPLUD
6XBkrVmwlx/hNZSVFwOeYqN3uQ7f5hGocIoKckap29jsNrMKNud5Xp2i5YMtCjye
yYOcoWboM7T0SXjr+Pz3bxP6rZtZpmUfKo1HN6w+PI+d4BjLyJxQFR1+JGSmsrgg
edGzcn65oi5gOXuiLaxJyCNJnAljqEinAgMBAAGjezB5MAkGA1UdEwQCMAAwLAYJ
YIZIAYb4QgENBB8WHU9wZW5TU0wgR2VuZXJhdGVkIENlcnRpZmljYXRlMB0GA1Ud
DgQWBBR+hIfrqUeOSsajPzY6V7XIP8h7xTAfBgNVHSMEGDAWgBQgG0DkABh85md6
gBb+FQeevXcnJjANBgkqhkiG9w0BAQUFAAOBgQAvVX32Lo7qz3OvTXOjsT2+YUg1
eyX/gJxbCkglyuH5+Vq9C3Zup+Ff80S3ZDodRYRqsFjaHpux7jTnR2i+ivAPlCUi
8AvHmNpGsfk5beBWbWi4ixTAOFRMv3dj+qIbYDFqoEmp2VWZy7k26eAE2dC01Rx5
mPxx9kVASpCrm3H8Pw==
-----END CERTIFICATE-----
