Certificate:
    Data:
        Version: 3 (0x2)
        Serial Number:
            a6:11:83:6b:46:29:8a:71
        Signature Algorithm: sha1WithRSAEncryption
        Issuer: C=NL, ST=Noord-Holland, O=Diff Automatisering, OU=Support group, CN=J. van der Steen/emailAddress=info@diff.nl
        Validity
            Not Before: Jul  3 15:11:03 2008 GMT
            Not After : Nov 19 15:11:03 2035 GMT
        Subject: C=NL, ST=Noord-Holland, L=Amsterdam, O=University of Amsterdam, OU=Server, CN=Jan Wielemaker/emailAddress=wielemak@science.uva.nl
        Subject Public Key Info:
            Public Key Algorithm: rsaEncryption
            RSA Public Key: (1024 bit)
                Modulus (1024 bit):
                    00:bd:19:49:a3:5b:44:61:19:47:31:f4:d5:8c:c2:
                    bc:fc:86:08:c0:8f:d3:1c:1d:c6:f7:4f:93:f8:d1:
                    57:bf:17:d6:c5:db:34:f3:fc:af:0d:ff:0b:74:61:
                    76:14:b0:72:89:03:37:5c:d6:47:6e:c2:0c:35:f9:
                    7f:52:23:79:4b:ae:59:d8:ae:09:f5:5b:61:ed:d9:
                    29:45:80:df:fc:9b:bb:7f:5a:3b:08:dd:75:2b:29:
                    e8:07:aa:49:29:ba:4c:e8:39:b3:9e:be:03:71:e7:
                    b0:02:14:3a:de:29:17:86:14:68:b2:49:aa:9c:64:
                    01:60:1b:9f:7f:e0:ab:7c:8b
                Exponent: 65537 (0x10001)
        X509v3 extensions:
            X509v3 Basic Constraints: 
                CA:FALSE
            Netscape Comment: 
                OpenSSL Generated Certificate
            X509v3 Subject Key Identifier: 
                8F:1F:C9:B8:13:2E:8C:0A:85:B3:50:B4:57:E7:6C:09:16:5F:CE:62
            X509v3 Authority Key Identifier: 
                keyid:20:1B:40:E4:00:18:7C:E6:67:7A:80:16:FE:15:07:9E:BD:77:27:26

    Signature Algorithm: sha1WithRSAEncryption
        56:f8:23:86:30:6d:3e:ae:1f:91:1d:d5:4e:48:49:d7:cb:72:
        74:7c:0e:34:07:f1:0d:cd:43:89:ba:ab:10:94:7b:71:2e:22:
        61:55:ec:14:dd:56:c4:fa:ca:2b:c6:1c:6c:e8:f4:af:36:2d:
        ca:6e:ed:d8:df:b3:b2:89:57:01:d3:61:53:56:90:02:ab:a8:
        66:c5:96:19:7e:2e:cc:70:5c:50:bf:fb:6e:e5:58:40:74:5b:
        de:d3:57:24:09:fb:32:fd:92:c1:07:7c:c0:1f:db:73:de:76:
        6e:93:c9:e5:97:f7:fa:87:9e:07:1f:09:13:d2:86:17:3f:70:
        0c:a2
-----BEGIN CERTIFICATE-----
MIIDOzCCAqSgAwIBAgIJAKYRg2tGKYpxMA0GCSqGSIb3DQEBBQUAMIGTMQswCQYD
VQQGEwJOTDEWMBQGA1UECBMNTm9vcmQtSG9sbGFuZDEcMBoGA1UEChMTRGlmZiBB
dXRvbWF0aXNlcmluZzEWMBQGA1UECxMNU3VwcG9ydCBncm91cDEZMBcGA1UEAxMQ
Si4gdmFuIGRlciBTdGVlbjEbMBkGCSqGSIb3DQEJARYMaW5mb0BkaWZmLm5sMB4X
DTA4MDcwMzE1MTEwM1oXDTM1MTExOTE1MTEwM1owga0xCzAJBgNVBAYTAk5MMRYw
FAYDVQQIEw1Ob29yZC1Ib2xsYW5kMRIwEAYDVQQHEwlBbXN0ZXJkYW0xIDAeBgNV
BAoTF1VuaXZlcnNpdHkgb2YgQW1zdGVyZGFtMQ8wDQYDVQQLEwZTZXJ2ZXIxFzAV
BgNVBAMTDkphbiBXaWVsZW1ha2VyMSYwJAYJKoZIhvcNAQkBFhd3aWVsZW1ha0Bz
Y2llbmNlLnV2YS5ubDCBnzANBgkqhkiG9w0BAQEFAAOBjQAwgYkCgYEAvRlJo1tE
YRlHMfTVjMK8/IYIwI/THB3G90+T+NFXvxfWxds08/yvDf8LdGF2FLByiQM3XNZH
bsIMNfl/UiN5S65Z2K4J9Vth7dkpRYDf/Ju7f1o7CN11KynoB6pJKbpM6Dmznr4D
ceewAhQ63ikXhhRoskmqnGQBYBuff+CrfIsCAwEAAaN7MHkwCQYDVR0TBAIwADAs
BglghkgBhvhCAQ0EHxYdT3BlblNTTCBHZW5lcmF0ZWQgQ2VydGlmaWNhdGUwHQYD
VR0OBBYEFI8fybgTLowKhbNQtFfnbAkWX85iMB8GA1UdIwQYMBaAFCAbQOQAGHzm
Z3qAFv4VB569dycmMA0GCSqGSIb3DQEBBQUAA4GBAFb4I4YwbT6uH5Ed1U5ISdfL
cnR8DjQH8Q3NQ4m6qxCUe3EuImFV7BTdVsT6yivGHGzo9K82Lcpu7djfs7KJVwHT
YVNWkAKrqGbFlhl+LsxwXFC/+27lWEB0W97TVyQJ+zL9ksEHfMAf23Pedm6TyeWX
9/qHngcfCRPShhc/cAyi
-----END CERTIFICATE-----
