Certificate:
    Data:
        Version: 3 (0x2)
        Serial Number:
            ea:f9:b5:1b:4a:64:0b:4e
        Signature Algorithm: sha1WithRSAEncryption
        Issuer: C=NL, ST=Noord-Holland, O=Diff Automatisering, OU=Support group, CN=J. van der Steen/emailAddress=info@diff.nl
        Validity
            Not Before: Feb 27 21:51:56 2010 GMT
            Not After : Jul 15 21:51:56 2037 GMT
        Subject: C=NL, ST=Noord-Holland, O=Diff Automatisering, OU=Support group, CN=J. van der Steen/emailAddress=info@diff.nl
        Subject Public Key Info:
            Public Key Algorithm: rsaEncryption
            RSA Public Key: (1024 bit)
                Modulus (1024 bit):
                    00:a3:89:65:d6:f6:34:38:be:8d:bf:0c:7b:95:0e:
                    01:0a:6e:3f:d6:54:c4:c4:d9:65:db:48:14:be:98:
                    79:e0:bc:f8:be:76:57:d3:91:f9:15:16:12:53:24:
                    ec:12:15:71:bd:c6:96:bc:cf:5c:5f:d0:1e:2d:f4:
                    79:ab:81:aa:29:76:a5:14:bb:0c:84:bd:93:84:43:
                    0b:51:ef:f4:64:8c:14:cc:6e:f2:f5:b5:cd:d7:66:
                    72:6b:96:e6:4f:e4:66:53:f0:95:7e:de:c5:8d:af:
                    ba:3b:83:43:7a:80:4b:b7:a0:47:c1:75:6e:97:3f:
                    ca:a0:bb:50:a3:a9:f3:7b:bf
                Exponent: 65537 (0x10001)
        X509v3 extensions:
            X509v3 Subject Key Identifier: 
                20:1B:40:E4:00:18:7C:E6:67:7A:80:16:FE:15:07:9E:BD:77:27:26
            X509v3 Authority Key Identifier: 
                keyid:20:1B:40:E4:00:18:7C:E6:67:7A:80:16:FE:15:07:9E:BD:77:27:26
                DirName:/C=NL/ST=Noord-Holland/O=Diff Automatisering/OU=Support group/CN=J. van der Steen/emailAddress=info@diff.nl
                serial:EA:F9:B5:1B:4A:64:0B:4E

            X509v3 Basic Constraints: 
                CA:TRUE
    Signature Algorithm: sha1WithRSAEncryption
        8e:06:3b:75:99:ac:d4:da:04:e7:b7:fa:46:27:82:56:06:39:
        dd:5c:04:ab:24:7f:a6:48:84:51:83:ca:8e:75:6f:dd:91:bc:
        ca:30:7a:25:18:d2:dd:84:71:f2:ed:ea:21:fe:99:19:be:0b:
        82:0a:8b:7c:2e:c1:ad:f0:6a:5c:f0:c4:85:2a:f6:23:30:78:
        1d:e4:83:c5:4a:e4:be:3f:b5:3b:e7:c3:82:53:39:98:9b:ca:
        45:e1:4c:4b:7f:9c:3d:73:93:46:75:50:17:fc:52:53:43:7c:
        a1:30:b2:72:c0:d1:d6:c0:26:0b:a9:04:a7:d2:4f:f7:f6:bd:
        0c:a3
-----BEGIN CERTIFICATE-----
MIIDojCCAwugAwIBAgIJAOr5tRtKZAtOMA0GCSqGSIb3DQEBBQUAMIGTMQswCQYD
VQQGEwJOTDEWMBQGA1UECBMNTm9vcmQtSG9sbGFuZDEcMBoGA1UEChMTRGlmZiBB
dXRvbWF0aXNlcmluZzEWMBQGA1UECxMNU3VwcG9ydCBncm91cDEZMBcGA1UEAxMQ
Si4gdmFuIGRlciBTdGVlbjEbMBkGCSqGSIb3DQEJARYMaW5mb0BkaWZmLm5sMB4X
DTEwMDIyNzIxNTE1NloXDTM3MDcxNTIxNTE1NlowgZMxCzAJBgNVBAYTAk5MMRYw
FAYDVQQIEw1Ob29yZC1Ib2xsYW5kMRwwGgYDVQQKExNEaWZmIEF1dG9tYXRpc2Vy
aW5nMRYwFAYDVQQLEw1TdXBwb3J0IGdyb3VwMRkwFwYDVQQDExBKLiB2YW4gZGVy
IFN0ZWVuMRswGQYJKoZIhvcNAQkBFgxpbmZvQGRpZmYubmwwgZ8wDQYJKoZIhvcN
AQEBBQADgY0AMIGJAoGBAKOJZdb2NDi+jb8Me5UOAQpuP9ZUxMTZZdtIFL6YeeC8
+L52V9OR+RUWElMk7BIVcb3GlrzPXF/QHi30eauBqil2pRS7DIS9k4RDC1Hv9GSM
FMxu8vW1zddmcmuW5k/kZlPwlX7exY2vujuDQ3qAS7egR8F1bpc/yqC7UKOp83u/
AgMBAAGjgfswgfgwHQYDVR0OBBYEFCAbQOQAGHzmZ3qAFv4VB569dycmMIHIBgNV
HSMEgcAwgb2AFCAbQOQAGHzmZ3qAFv4VB569dycmoYGZpIGWMIGTMQswCQYDVQQG
EwJOTDEWMBQGA1UECBMNTm9vcmQtSG9sbGFuZDEcMBoGA1UEChMTRGlmZiBBdXRv
bWF0aXNlcmluZzEWMBQGA1UECxMNU3VwcG9ydCBncm91cDEZMBcGA1UEAxMQSi4g
dmFuIGRlciBTdGVlbjEbMBkGCSqGSIb3DQEJARYMaW5mb0BkaWZmLm5sggkA6vm1
G0pkC04wDAYDVR0TBAUwAwEB/zANBgkqhkiG9w0BAQUFAAOBgQCOBjt1mazU2gTn
t/pGJ4JWBjndXASrJH+mSIRRg8qOdW/dkbzKMHolGNLdhHHy7eoh/pkZvguCCot8
LsGt8Gpc8MSFKvYjMHgd5IPFSuS+P7U758OCUzmYm8pF4UxLf5w9c5NGdVAX/FJT
Q3yhMLJywNHWwCYLqQSn0k/39r0Mow==
-----END CERTIFICATE-----
